; Function Attrs: nounwind uwtable
define dso_local range(i32 0, 2) i32 @WPACKET_close(ptr noundef captures(none) %0) local_unnamed_addr #0 {
  %2 = getelementptr inbounds nuw i8, ptr %0, i64 40
  %3 = load ptr, ptr %2, align 8, !tbaa !4
  %4 = icmp eq ptr %3, null
  br i1 %4, label %10, label %5

5:                                                ; preds = %1
  %6 = load ptr, ptr %3, align 8, !tbaa !25
  %7 = icmp eq ptr %6, null
  br i1 %7, label %10, label %8

8:                                                ; preds = %5
  %9 = tail call fastcc i32 @wpacket_intern_close(ptr noundef nonnull %0, ptr noundef %3, i32 noundef 1)
  br label %10

10:                                               ; preds = %1, %5, %8
  %.0 = phi i32 [ %9, %8 ], [ 0, %5 ], [ 0, %1 ]
  ret i32 %.0
}